(dp0
S'golf'
p1
(lp2
(S'sport_football'
p3
(dp4
S'weight'
p5
F310.0
stp6
a(S'basketball'
p7
(dp8
g5
F172.0
stp9
a(S'tennis'
p10
(dp11
g5
F169.0
stp12
a(S'rugby'
p13
(dp14
g5
F142.0
stp15
a(S'racing'
p16
(dp17
g5
F140.0
stp18
asS'dance'
p19
(lp20
(S'youtube'
p21
(dp22
g5
F865.0
stp23
a(S'tvshows_drama_actor_hollywood'
p24
(dp25
g5
F703.0
stp26
a(S'musician_singer'
p27
(dp28
g5
F692.0
stp29
a(S'theatre_theater'
p30
(dp31
g5
F401.0
stp32
a(S'realitytv'
p33
(dp34
g5
F366.0
stp35
asS'etsy_handmade'
p36
(lp37
(S'politics_news'
p38
(dp39
g5
F130.0
stp40
a(S'comedy_funny'
p41
(dp42
g5
F108.0
stp43
a(g27
(dp44
g5
F94.0
stp45
a(S'beauty_fashion_shopping'
p46
(dp47
g5
F92.0
stp48
a(S'photography'
p49
(dp50
g5
F86.0
stp51
asS'radio'
p52
(lp53
(g27
(dp54
g5
F3351.0
stp55
a(S'documentary'
p56
(dp57
g5
F1473.0
stp58
a(S'rapper'
p59
(dp60
g5
F1246.0
stp61
a(g24
(dp62
g5
F760.0
stp63
a(g38
(dp64
g5
F742.0
stp65
asS'fishing'
p66
(lp67
(S'hunting'
p68
(dp69
g5
F846.0
stp70
a(g21
(dp71
g5
F124.0
stp72
a(S'running'
p73
(dp74
g5
F95.0
stp75
a(g38
(dp76
g5
F83.0
stp77
a(S'nature'
p78
(dp79
g5
F75.0
stp80
asS'skiing'
p81
(lp82
(S'skateboarding'
p83
(dp84
g5
F1119.0
stp85
a(S'climbing'
p86
(dp87
g5
F496.0
stp88
a(g21
(dp89
g5
F378.0
stp90
a(S'newspaper'
p91
(dp92
g5
F232.0
stp93
a(S'airlines_aviation'
p94
(dp95
g5
F231.0
stp96
asS'poetry'
p97
(lp98
(S'publishing_literature'
p99
(dp100
g5
F946.0
stp101
a(S'writing'
p102
(dp103
g5
F355.0
stp104
a(S'author'
p105
(dp106
g5
F213.0
stp107
a(g91
(dp108
g5
F197.0
stp109
a(g21
(dp110
g5
F186.0
stp111
asS'meditation'
p112
(lp113
(S'buddhism'
p114
(dp115
g5
F1115.0
stp116
a(S'yoga'
p117
(dp118
g5
F486.0
stp119
a(g105
(dp120
g5
F309.0
stp121
a(g21
(dp122
g5
F275.0
stp123
a(S'architecture'
p124
(dp125
g5
F218.0
stp126
asS'children'
p127
(lp128
(S'parenting'
p129
(dp130
g5
F1053.0
stp131
a(S'charity_philanthropy'
p132
(dp133
g5
F589.0
stp134
a(S'humanrights_activism_justice'
p135
(dp136
g5
F433.0
stp137
a(g38
(dp138
g5
F433.0
stp139
a(g91
(dp140
g5
F428.0
stp141
asS'astrology'
p142
(lp143
(g38
(dp144
g5
F352.0
stp145
a(g21
(dp146
g5
F297.0
stp147
a(S'archaeology'
p148
(dp149
g5
F156.0
stp150
a(S'liberal'
p151
(dp152
g5
F146.0
stp153
a(S'sociology'
p154
(dp155
g5
F132.0
stp156
asS'linguistics'
p157
(lp158
(g102
(dp159
g5
F282.0
stp160
a(g105
(dp161
g5
F220.0
stp162
a(S'teaching'
p163
(dp164
g5
F154.0
stp165
a(g38
(dp166
g5
F127.0
stp167
a(g91
(dp168
g5
F120.0
stp169
asS'climatechange'
p170
(lp171
(S'sustainability_ecology'
p172
(dp173
g5
F3049.0
stp174
a(S'energy'
p175
(dp176
g5
F1703.0
stp177
a(g38
(dp178
g5
F1288.0
stp179
a(g135
(dp180
g5
F1026.0
stp181
a(g78
(dp182
g5
F909.0
stp183
asS'pharma'
p184
(lp185
(S'healthcare_medicine'
p186
(dp187
g5
F2316.0
stp188
a(S'marketing'
p189
(dp190
g5
F681.0
stp191
a(S'cancer'
p192
(dp193
g5
F460.0
stp194
a(g21
(dp195
g5
F276.0
stp196
a(S'tech'
p197
(dp198
g5
F272.0
stp199
asg68
(lp200
(g66
(dp201
g5
F880.0
stp202
a(g21
(dp203
g5
F651.0
stp204
a(g189
(dp205
g5
F455.0
stp206
a(g78
(dp207
g5
F398.0
stp208
a(g49
(dp209
g5
F103.0
stp210
asS'flash'
p211
(lp212
(S'html'
p213
(dp214
g5
F1339.0
stp215
a(S'developer'
p216
(dp217
g5
F885.0
stp218
a(g197
(dp219
g5
F437.0
stp220
a(S'mobile_smartphone'
p221
(dp222
g5
F251.0
stp223
a(g21
(dp224
g5
F187.0
stp225
asg102
(lp226
(g99
(dp227
g5
F3131.0
stp228
a(g105
(dp229
g5
F1795.0
stp230
a(g189
(dp231
g5
F595.0
stp232
a(S'romance'
p233
(dp234
g5
F557.0
stp235
a(S'screenwriter'
p236
(dp237
g5
F421.0
stp238
asg135
(lp239
(g38
(dp240
g5
F2608.0
stp241
a(g91
(dp242
g5
F1379.0
stp243
a(g151
(dp244
g5
F1059.0
stp245
a(g132
(dp246
g5
F889.0
stp247
a(S'democrat'
p248
(dp249
g5
F884.0
stp250
asg213
(lp251
(g216
(dp252
g5
F2570.0
stp253
a(g211
(dp254
g5
F1129.0
stp255
a(S'python'
p256
(dp257
g5
F500.0
stp258
a(g197
(dp259
g5
F495.0
stp260
a(S'blogs'
p261
(dp262
g5
F286.0
stp263
asS'hockey'
p264
(lp265
(g21
(dp266
g5
F196.0
stp267
a(g91
(dp268
g5
F167.0
stp269
a(S'finance_economics'
p270
(dp271
g5
F103.0
stp272
a(g52
(dp273
g5
F84.0
stp274
a(S'baseball'
p275
(dp276
g5
F79.0
stp277
asg163
(lp278
(g38
(dp279
g5
F769.0
stp280
a(S'literacy'
p281
(dp282
g5
F280.0
stp283
a(g59
(dp284
g5
F265.0
stp285
a(g189
(dp286
g5
F243.0
stp287
a(g91
(dp288
g5
F243.0
stp289
asS'filmfestival'
p290
(lp291
(g56
(dp292
g5
F840.0
stp293
a(S'cinema'
p294
(dp295
g5
F454.0
stp296
a(g236
(dp297
g5
F404.0
stp298
a(S'director'
p299
(dp300
g5
F388.0
stp301
a(S'horror'
p302
(dp303
g5
F382.0
stp304
asS'ceo'
p305
(lp306
(g197
(dp307
g5
F2566.0
stp308
a(g189
(dp309
g5
F1982.0
stp310
a(S'investor'
p311
(dp312
g5
F1545.0
stp313
a(g38
(dp314
g5
F821.0
stp315
a(g270
(dp316
g5
F771.0
stp317
asS'automotive'
p318
(lp319
(g16
(dp320
g5
F472.0
stp321
a(g91
(dp322
g5
F356.0
stp323
a(g189
(dp324
g5
F351.0
stp325
a(g21
(dp326
g5
F327.0
stp327
a(g270
(dp328
g5
F321.0
stp329
asg49
(lp330
(g261
(dp331
g5
F1010.0
stp332
a(g197
(dp333
g5
F872.0
stp334
a(S'multimedia'
p335
(dp336
g5
F581.0
stp337
a(g91
(dp338
g5
F306.0
stp339
a(g189
(dp340
g5
F273.0
stp341
asS'jazz'
p342
(lp343
(g21
(dp344
g5
F1276.0
stp345
a(S'composer'
p346
(dp347
g5
F421.0
stp348
a(g30
(dp349
g5
F168.0
stp350
a(S'drums'
p351
(dp352
g5
F165.0
stp353
a(g91
(dp354
g5
F141.0
stp355
asg3
(lp356
(g91
(dp357
g5
F2634.0
stp358
a(g7
(dp359
g5
F529.0
stp360
a(g59
(dp361
g5
F381.0
stp362
a(g33
(dp363
g5
F207.0
stp364
a(g1
(dp365
g5
F174.0
stp366
asS'wedding'
p367
(lp368
(g46
(dp369
g5
F679.0
stp370
a(S'magazine'
p371
(dp372
g5
F419.0
stp373
a(S'baking'
p374
(dp375
g5
F397.0
stp376
a(g49
(dp377
g5
F368.0
stp378
a(g33
(dp379
g5
F366.0
stp380
asg311
(lp381
(g197
(dp382
g5
F3492.0
stp383
a(g305
(dp384
g5
F1572.0
stp385
a(S'trading'
p386
(dp387
g5
F1287.0
stp388
a(g221
(dp389
g5
F704.0
stp390
a(g189
(dp391
g5
F563.0
stp392
asg281
(lp393
(g163
(dp394
g5
F1142.0
stp395
a(g129
(dp396
g5
F1123.0
stp397
a(g91
(dp398
g5
F805.0
stp399
a(g99
(dp400
g5
F799.0
stp401
a(g38
(dp402
g5
F686.0
stp403
asg41
(lp404
(g299
(dp405
g5
F1053.0
stp406
a(g24
(dp407
g5
F1036.0
stp408
a(S'jokes'
p409
(dp410
g5
F497.0
stp411
a(g38
(dp412
g5
F478.0
stp413
a(g27
(dp414
g5
F444.0
stp415
asS'dating'
p416
(lp417
(g38
(dp418
g5
F613.0
stp419
a(g33
(dp420
g5
F386.0
stp421
a(g261
(dp422
g5
F323.0
stp423
a(g91
(dp424
g5
F273.0
stp425
a(g371
(dp426
g5
F259.0
stp427
asg374
(lp428
(S'recipes_cooking'
p429
(dp430
g5
F3095.0
stp431
a(S'food_chef'
p432
(dp433
g5
F2826.0
stp434
a(g367
(dp435
g5
F381.0
stp436
a(g36
(dp437
g5
F291.0
stp438
a(g21
(dp439
g5
F225.0
stp440
asg221
(lp441
(g197
(dp442
g5
F1709.0
stp443
a(g261
(dp444
g5
F424.0
stp445
a(S'advertising'
p446
(dp447
g5
F375.0
stp448
a(S'gaming'
p449
(dp450
g5
F305.0
stp451
a(S'ipad'
p452
(dp453
g5
F265.0
stp454
asS'university'
p455
(lp456
(S'highered'
p457
(dp458
g5
F807.0
stp459
a(g91
(dp460
g5
F683.0
stp461
a(g38
(dp462
g5
F535.0
stp463
a(S'college'
p464
(dp465
g5
F253.0
stp466
a(g99
(dp467
g5
F238.0
stp468
asg59
(lp469
(g21
(dp470
g5
F1003.0
stp471
a(g7
(dp472
g5
F424.0
stp473
a(g27
(dp474
g5
F367.0
stp475
a(g33
(dp476
g5
F213.0
stp477
a(g52
(dp478
g5
F166.0
stp479
asg248
(lp480
(g38
(dp481
g5
F1862.0
stp482
a(g151
(dp483
g5
F484.0
stp484
a(g91
(dp485
g5
F423.0
stp486
a(S'army_military_veteran'
p487
(dp488
g5
F283.0
stp489
a(S'reporter'
p490
(dp491
g5
F168.0
stp492
asS'banking'
p493
(lp494
(g197
(dp495
g5
F972.0
stp496
a(g270
(dp497
g5
F918.0
stp498
a(g38
(dp499
g5
F522.0
stp500
a(g221
(dp501
g5
F456.0
stp502
a(g261
(dp503
g5
F330.0
stp504
asg124
(lp505
(S'construction'
p506
(dp507
g5
F790.0
stp508
a(g91
(dp509
g5
F361.0
stp510
a(S'geography'
p511
(dp512
g5
F338.0
stp513
a(S'innovation'
p514
(dp515
g5
F286.0
stp516
a(g38
(dp517
g5
F196.0
stp518
asS'motorcycle'
p519
(lp520
(S'cycling'
p521
(dp522
g5
F318.0
stp523
a(g16
(dp524
g5
F297.0
stp525
a(g21
(dp526
g5
F239.0
stp527
a(g97
(dp528
g5
F109.0
stp529
a(g318
(dp530
g5
F105.0
stp531
asS'gardening'
p532
(lp533
(g78
(dp534
g5
F563.0
stp535
a(g172
(dp536
g5
F349.0
stp537
a(S'agriculture'
p538
(dp539
g5
F301.0
stp540
a(g432
(dp541
g5
F208.0
stp542
a(g429
(dp543
g5
F159.0
stp544
asS'branding'
p545
(lp546
(g189
(dp547
g5
F3439.0
stp548
a(S'career_employment'
p549
(dp550
g5
F1349.0
stp551
a(g197
(dp552
g5
F922.0
stp553
a(g446
(dp554
g5
F704.0
stp555
a(g305
(dp556
g5
F634.0
stp557
asg175
(lp558
(g172
(dp559
g5
F1002.0
stp560
a(g38
(dp561
g5
F969.0
stp562
a(g170
(dp563
g5
F845.0
stp564
a(g91
(dp565
g5
F840.0
stp566
a(g270
(dp567
g5
F609.0
stp568
asg38
(lp569
(g490
(dp570
g5
F1246.0
stp571
a(g248
(dp572
g5
F1077.0
stp573
a(g151
(dp574
g5
F888.0
stp575
a(g270
(dp576
g5
F886.0
stp577
a(g91
(dp578
g5
F758.0
stp579
asS'mac_iphone'
p580
(lp581
(g452
(dp582
g5
F1007.0
stp583
a(g216
(dp584
g5
F791.0
stp585
a(g197
(dp586
g5
F443.0
stp587
a(S'hacking'
p588
(dp589
g5
F374.0
stp590
a(g221
(dp591
g5
F156.0
stp592
asS'genealogy'
p593
(lp594
(S'history'
p595
(dp596
g5
F861.0
stp597
a(g148
(dp598
g5
F201.0
stp599
a(g38
(dp600
g5
F191.0
stp601
a(g21
(dp602
g5
F157.0
stp603
a(g197
(dp604
g5
F145.0
stp605
asg464
(lp606
(g91
(dp607
g5
F850.0
stp608
a(g457
(dp609
g5
F771.0
stp610
a(g38
(dp611
g5
F552.0
stp612
a(g455
(dp613
g5
F469.0
stp614
a(g270
(dp615
g5
F330.0
stp616
asg99
(lp617
(g105
(dp618
g5
F2305.0
stp619
a(g233
(dp620
g5
F1991.0
stp621
a(g91
(dp622
g5
F1210.0
stp623
a(g38
(dp624
g5
F1198.0
stp625
a(g371
(dp626
g5
F1116.0
stp627
asg83
(lp628
(S'surfing'
p629
(dp630
g5
F952.0
stp631
a(g59
(dp632
g5
F460.0
stp633
a(g81
(dp634
g5
F271.0
stp635
a(g7
(dp636
g5
F221.0
stp637
a(g3
(dp638
g5
F168.0
stp639
asg538
(lp640
(g270
(dp641
g5
F923.0
stp642
a(g197
(dp643
g5
F505.0
stp644
a(S'nutrition'
p645
(dp646
g5
F427.0
stp647
a(g38
(dp648
g5
F401.0
stp649
a(g189
(dp650
g5
F383.0
stp651
asS'insurance'
p652
(lp653
(g189
(dp654
g5
F621.0
stp655
a(g38
(dp656
g5
F437.0
stp657
a(g270
(dp658
g5
F281.0
stp659
a(g91
(dp660
g5
F211.0
stp661
a(g197
(dp662
g5
F182.0
stp663
asg154
(lp664
(g197
(dp665
g5
F550.0
stp666
a(g135
(dp667
g5
F468.0
stp668
a(g91
(dp669
g5
F374.0
stp670
a(g38
(dp671
g5
F364.0
stp672
a(S'anthropology'
p673
(dp674
g5
F364.0
stp675
asg409
(lp676
(g41
(dp677
g5
F1037.0
stp678
a(g38
(dp679
g5
F428.0
stp680
a(g261
(dp681
g5
F184.0
stp682
a(g21
(dp683
g5
F163.0
stp684
a(g27
(dp685
g5
F137.0
stp686
asg335
(lp687
(g91
(dp688
g5
F1138.0
stp689
a(g299
(dp690
g5
F904.0
stp691
a(g49
(dp692
g5
F848.0
stp693
a(g38
(dp694
g5
F706.0
stp695
a(g197
(dp696
g5
F462.0
stp697
asS'religion'
p698
(lp699
(g38
(dp700
g5
F1106.0
stp701
a(g91
(dp702
g5
F802.0
stp703
a(g151
(dp704
g5
F262.0
stp705
a(g27
(dp706
g5
F241.0
stp707
a(g99
(dp708
g5
F239.0
stp709
asg514
(lp710
(S'management'
p711
(dp712
g5
F1182.0
stp713
a(g197
(dp714
g5
F1139.0
stp715
a(g132
(dp716
g5
F922.0
stp717
a(g270
(dp718
g5
F846.0
stp719
a(g305
(dp720
g5
F694.0
stp721
asg216
(lp722
(g213
(dp723
g5
F2597.0
stp724
a(g452
(dp725
g5
F2140.0
stp726
a(S'ruby'
p727
(dp728
g5
F1351.0
stp729
a(g197
(dp730
g5
F1089.0
stp731
a(g580
(dp732
g5
F878.0
stp733
asg16
(lp734
(g318
(dp735
g5
F652.0
stp736
a(g38
(dp737
g5
F474.0
stp738
a(g3
(dp739
g5
F418.0
stp740
a(g519
(dp741
g5
F364.0
stp742
a(g1
(dp743
g5
F286.0
stp744
asS'biology'
p745
(lp746
(S'neuroscience'
p747
(dp748
g5
F354.0
stp749
a(g91
(dp750
g5
F245.0
stp751
a(g184
(dp752
g5
F211.0
stp753
a(g455
(dp754
g5
F207.0
stp755
a(g197
(dp756
g5
F205.0
stp757
asg457
(lp758
(g189
(dp759
g5
F1101.0
stp760
a(g221
(dp761
g5
F791.0
stp762
a(g197
(dp763
g5
F566.0
stp764
a(g464
(dp765
g5
F483.0
stp766
a(g455
(dp767
g5
F462.0
stp768
asg78
(lp769
(g91
(dp770
g5
F2626.0
stp771
a(g172
(dp772
g5
F1646.0
stp773
a(g38
(dp774
g5
F1077.0
stp775
a(g170
(dp776
g5
F694.0
stp777
a(S'outdoors_hiking'
p778
(dp779
g5
F678.0
stp780
asg189
(lp781
(g197
(dp782
g5
F1974.0
stp783
a(S'publicrelations'
p784
(dp785
g5
F1684.0
stp786
a(g545
(dp787
g5
F1578.0
stp788
a(g305
(dp789
g5
F1034.0
stp790
a(g270
(dp791
g5
F779.0
stp792
asS'dental'
p793
(lp794
(g132
(dp795
g5
F327.0
stp796
a(g21
(dp797
g5
F327.0
stp798
a(g186
(dp799
g5
F74.0
stp800
a(g189
(dp801
g5
F69.0
stp802
a(g270
(dp803
g5
F69.0
stp804
asS'guitar'
p805
(lp806
(g27
(dp807
g5
F557.0
stp808
a(g21
(dp809
g5
F342.0
stp810
a(g351
(dp811
g5
F127.0
stp812
a(g41
(dp813
g5
F104.0
stp814
a(g261
(dp815
g5
F99.0
stp816
asg7
(lp817
(g59
(dp818
g5
F779.0
stp819
a(g3
(dp820
g5
F610.0
stp821
a(g33
(dp822
g5
F334.0
stp823
a(g490
(dp824
g5
F223.0
stp825
a(g27
(dp826
g5
F122.0
stp827
asg275
(lp828
(S'fantasy'
p829
(dp830
g5
F477.0
stp831
a(g3
(dp832
g5
F281.0
stp833
a(g490
(dp834
g5
F248.0
stp835
a(g41
(dp836
g5
F228.0
stp837
a(g7
(dp838
g5
F190.0
stp839
asg351
(lp840
(g21
(dp841
g5
F756.0
stp842
a(g27
(dp843
g5
F397.0
stp844
a(g59
(dp845
g5
F309.0
stp846
a(g805
(dp847
g5
F178.0
stp848
a(g41
(dp849
g5
F159.0
stp850
asg521
(lp851
(g192
(dp852
g5
F445.0
stp853
a(g73
(dp854
g5
F204.0
stp855
a(g519
(dp856
g5
F152.0
stp857
a(g16
(dp858
g5
F109.0
stp859
a(g197
(dp860
g5
F81.0
stp861
asg33
(lp862
(g27
(dp863
g5
F738.0
stp864
a(g59
(dp865
g5
F681.0
stp866
a(g38
(dp867
g5
F614.0
stp868
a(g24
(dp869
g5
F454.0
stp870
a(g371
(dp871
g5
F421.0
stp872
asg673
(lp873
(g154
(dp874
g5
F547.0
stp875
a(g148
(dp876
g5
F489.0
stp877
a(g197
(dp878
g5
F439.0
stp879
a(g38
(dp880
g5
F396.0
stp881
a(g747
(dp882
g5
F377.0
stp883
asg13
(lp884
(g1
(dp885
g5
F364.0
stp886
a(g3
(dp887
g5
F356.0
stp888
a(g21
(dp889
g5
F135.0
stp890
a(S'swimming'
p891
(dp892
g5
F112.0
stp893
a(g449
(dp894
g5
F89.0
stp895
asg30
(lp896
(g91
(dp897
g5
F1453.0
stp898
a(g24
(dp899
g5
F536.0
stp900
a(g41
(dp901
g5
F363.0
stp902
a(g27
(dp903
g5
F298.0
stp904
a(g38
(dp905
g5
F287.0
stp906
asS'vegetarian'
p907
(lp908
(g432
(dp909
g5
F666.0
stp910
a(g645
(dp911
g5
F376.0
stp912
a(g38
(dp913
g5
F309.0
stp914
a(S'restaurant_dining'
p915
(dp916
g5
F290.0
stp917
a(g429
(dp918
g5
F258.0
stp919
asg432
(lp920
(g429
(dp921
g5
F2237.0
stp922
a(g374
(dp923
g5
F1305.0
stp924
a(g38
(dp925
g5
F850.0
stp926
a(g915
(dp927
g5
F457.0
stp928
a(g41
(dp929
g5
F394.0
stp930
asS'lawyer_legal'
p931
(lp932
(g197
(dp933
g5
F1018.0
stp934
a(g189
(dp935
g5
F866.0
stp936
a(g38
(dp937
g5
F623.0
stp938
a(g270
(dp939
g5
F384.0
stp940
a(g91
(dp941
g5
F322.0
stp942
asg446
(lp943
(g189
(dp944
g5
F1178.0
stp945
a(g197
(dp946
g5
F1074.0
stp947
a(g514
(dp948
g5
F670.0
stp949
a(g91
(dp950
g5
F655.0
stp951
a(g261
(dp952
g5
F646.0
stp953
asS'hospitality'
p954
(lp955
(g91
(dp956
g5
F2054.0
stp957
a(g197
(dp958
g5
F787.0
stp959
a(g38
(dp960
g5
F739.0
stp961
a(g189
(dp962
g5
F668.0
stp963
a(g915
(dp964
g5
F563.0
stp965
asg56
(lp966
(g290
(dp967
g5
F1268.0
stp968
a(g91
(dp969
g5
F561.0
stp970
a(g294
(dp971
g5
F535.0
stp972
a(g38
(dp973
g5
F496.0
stp974
a(g41
(dp975
g5
F319.0
stp976
asg891
(lp977
(g3
(dp978
g5
F439.0
stp979
a(g13
(dp980
g5
F328.0
stp981
a(g432
(dp982
g5
F214.0
stp983
a(g21
(dp984
g5
F156.0
stp985
a(g521
(dp986
g5
F130.0
stp987
asg192
(lp988
(g186
(dp989
g5
F713.0
stp990
a(g132
(dp991
g5
F659.0
stp992
a(g521
(dp993
g5
F624.0
stp994
a(g38
(dp995
g5
F485.0
stp996
a(g91
(dp997
g5
F426.0
stp998
asS'psychology_mentalhealth'
p999
(lp1000
(g91
(dp1001
g5
F996.0
stp1002
a(g186
(dp1003
g5
F957.0
stp1004
a(g38
(dp1005
g5
F881.0
stp1006
a(g129
(dp1007
g5
F643.0
stp1008
a(g747
(dp1009
g5
F609.0
stp1010
asg94
(lp1011
(g305
(dp1012
g5
F287.0
stp1013
a(g38
(dp1014
g5
F243.0
stp1015
a(g91
(dp1016
g5
F195.0
stp1017
a(g21
(dp1018
g5
F173.0
stp1019
a(g954
(dp1020
g5
F160.0
stp1021
asg829
(lp1022
(g3
(dp1023
g5
F1443.0
stp1024
a(g275
(dp1025
g5
F1437.0
stp1026
a(S'wrestling'
p1027
(dp1028
g5
F340.0
stp1029
a(S'beer'
p1030
(dp1031
g5
F151.0
stp1032
a(g490
(dp1033
g5
F139.0
stp1034
asS'weather'
p1035
(lp1036
(g38
(dp1037
g5
F832.0
stp1038
a(g91
(dp1039
g5
F487.0
stp1040
a(g197
(dp1041
g5
F142.0
stp1042
a(g132
(dp1043
g5
F134.0
stp1044
a(S'astronomy_physics'
p1045
(dp1046
g5
F123.0
stp1047
asg346
(lp1048
(S'piano'
p1049
(dp1050
g5
F712.0
stp1051
a(g342
(dp1052
g5
F498.0
stp1053
a(g41
(dp1054
g5
F288.0
stp1055
a(g21
(dp1056
g5
F201.0
stp1057
a(g91
(dp1058
g5
F183.0
stp1059
asS'toys'
p1060
(lp1061
(g449
(dp1062
g5
F313.0
stp1063
a(S'comics'
p1064
(dp1065
g5
F311.0
stp1066
a(g129
(dp1067
g5
F172.0
stp1068
a(g261
(dp1069
g5
F167.0
stp1070
a(g41
(dp1071
g5
F154.0
stp1072
asS'pregnancy'
p1073
(lp1074
(g129
(dp1075
g5
F1617.0
stp1076
a(g186
(dp1077
g5
F284.0
stp1078
a(g38
(dp1079
g5
F215.0
stp1080
a(g24
(dp1081
g5
F126.0
stp1082
a(g135
(dp1083
g5
F79.0
stp1084
asg172
(lp1085
(g170
(dp1086
g5
F2243.0
stp1087
a(g91
(dp1088
g5
F1214.0
stp1089
a(g175
(dp1090
g5
F1197.0
stp1091
a(g78
(dp1092
g5
F1115.0
stp1093
a(g38
(dp1094
g5
F996.0
stp1095
asS'gambling'
p1096
(lp1097
(S'poker'
p1098
(dp1099
g5
F847.0
stp1100
a(g21
(dp1101
g5
F302.0
stp1102
a(g7
(dp1103
g5
F253.0
stp1104
a(g3
(dp1105
g5
F204.0
stp1106
a(g264
(dp1107
g5
F154.0
stp1108
asg711
(lp1109
(g514
(dp1110
g5
F1001.0
stp1111
a(g270
(dp1112
g5
F655.0
stp1113
a(g189
(dp1114
g5
F627.0
stp1115
a(g549
(dp1116
g5
F417.0
stp1117
a(g305
(dp1118
g5
F390.0
stp1119
asS'java'
p1120
(lp1121
(S'database'
p1122
(dp1123
g5
F645.0
stp1124
a(g216
(dp1125
g5
F394.0
stp1126
a(g727
(dp1127
g5
F375.0
stp1128
a(g197
(dp1129
g5
F192.0
stp1130
a(g213
(dp1131
g5
F153.0
stp1132
asS'housing'
p1133
(lp1134
(g91
(dp1135
g5
F985.0
stp1136
a(g506
(dp1137
g5
F313.0
stp1138
a(g38
(dp1139
g5
F260.0
stp1140
a(S'poverty'
p1141
(dp1142
g5
F211.0
stp1143
a(g132
(dp1144
g5
F187.0
stp1145
asg10
(lp1146
(g3
(dp1147
g5
F375.0
stp1148
a(g52
(dp1149
g5
F312.0
stp1150
a(g1
(dp1151
g5
F251.0
stp1152
a(g7
(dp1153
g5
F174.0
stp1154
a(g464
(dp1155
g5
F165.0
stp1156
asS'perl'
p1157
(lp1158
(g216
(dp1159
g5
F516.0
stp1160
a(g727
(dp1161
g5
F391.0
stp1162
a(g41
(dp1163
g5
F327.0
stp1164
a(g197
(dp1165
g5
F319.0
stp1166
a(g1064
(dp1167
g5
F274.0
stp1168
asS'mathematics'
p1169
(lp1170
(g197
(dp1171
g5
F319.0
stp1172
a(g163
(dp1173
g5
F266.0
stp1174
a(g41
(dp1175
g5
F206.0
stp1176
a(g1045
(dp1177
g5
F152.0
stp1178
a(g38
(dp1179
g5
F150.0
stp1180
asg1030
(lp1181
(g432
(dp1182
g5
F290.0
stp1183
a(g21
(dp1184
g5
F280.0
stp1185
a(g645
(dp1186
g5
F242.0
stp1187
a(S'wine'
p1188
(dp1189
g5
F172.0
stp1190
a(g91
(dp1191
g5
F141.0
stp1192
asS'exercise_fitness'
p1193
(lp1194
(g21
(dp1195
g5
F1326.0
stp1196
a(g645
(dp1197
g5
F1187.0
stp1198
a(g73
(dp1199
g5
F609.0
stp1200
a(g189
(dp1201
g5
F485.0
stp1202
a(g38
(dp1203
g5
F466.0
stp1204
asS'islam'
p1205
(lp1206
(g38
(dp1207
g5
F930.0
stp1208
a(g91
(dp1209
g5
F425.0
stp1210
a(g151
(dp1211
g5
F284.0
stp1212
a(g698
(dp1213
g5
F231.0
stp1214
a(g135
(dp1215
g5
F149.0
stp1216
asg915
(lp1217
(g432
(dp1218
g5
F1042.0
stp1219
a(g21
(dp1220
g5
F454.0
stp1221
a(g954
(dp1222
g5
F381.0
stp1223
a(g91
(dp1224
g5
F261.0
stp1225
a(g1030
(dp1226
g5
F228.0
stp1227
asg645
(lp1228
(g1193
(dp1229
g5
F2221.0
stp1230
a(g38
(dp1231
g5
F1311.0
stp1232
a(g186
(dp1233
g5
F1016.0
stp1234
a(g432
(dp1235
g5
F895.0
stp1236
a(g172
(dp1237
g5
F717.0
stp1238
asS'jewish'
p1239
(lp1240
(g38
(dp1241
g5
F928.0
stp1242
a(g91
(dp1243
g5
F597.0
stp1244
a(g21
(dp1245
g5
F329.0
stp1246
a(g132
(dp1247
g5
F247.0
stp1248
a(g41
(dp1249
g5
F231.0
stp1250
asg1027
(lp1251
(g41
(dp1252
g5
F397.0
stp1253
a(g27
(dp1254
g5
F324.0
stp1255
a(g21
(dp1256
g5
F205.0
stp1257
a(g24
(dp1258
g5
F193.0
stp1259
a(g7
(dp1260
g5
F180.0
stp1261
asg186
(lp1262
(g184
(dp1263
g5
F1522.0
stp1264
a(g38
(dp1265
g5
F794.0
stp1266
a(g192
(dp1267
g5
F734.0
stp1268
a(g197
(dp1269
g5
F610.0
stp1270
a(g91
(dp1271
g5
F435.0
stp1272
asg487
(lp1273
(g38
(dp1274
g5
F1396.0
stp1275
a(g91
(dp1276
g5
F623.0
stp1277
a(g24
(dp1278
g5
F270.0
stp1279
a(g197
(dp1280
g5
F221.0
stp1281
a(g151
(dp1282
g5
F210.0
stp1283
asg506
(lp1284
(g124
(dp1285
g5
F858.0
stp1286
a(g931
(dp1287
g5
F563.0
stp1288
a(g1133
(dp1289
g5
F458.0
stp1290
a(g91
(dp1291
g5
F403.0
stp1292
a(g172
(dp1293
g5
F371.0
stp1294
asg132
(lp1295
(g38
(dp1296
g5
F1386.0
stp1297
a(g91
(dp1298
g5
F1247.0
stp1299
a(g135
(dp1300
g5
F1194.0
stp1301
a(g1141
(dp1302
g5
F1114.0
stp1303
a(g197
(dp1304
g5
F606.0
stp1305
asg727
(lp1306
(g216
(dp1307
g5
F2360.0
stp1308
a(g256
(dp1309
g5
F431.0
stp1310
a(S'php'
p1311
(dp1312
g5
F320.0
stp1313
a(g213
(dp1314
g5
F259.0
stp1315
a(g197
(dp1316
g5
F221.0
stp1317
asg1049
(lp1318
(g346
(dp1319
g5
F379.0
stp1320
a(g30
(dp1321
g5
F254.0
stp1322
a(g21
(dp1323
g5
F188.0
stp1324
a(g342
(dp1325
g5
F149.0
stp1326
a(S'homeschool_school'
p1327
(dp1328
g5
F106.0
stp1329
asg490
(lp1330
(g38
(dp1331
g5
F5827.0
stp1332
a(g7
(dp1333
g5
F787.0
stp1334
a(g91
(dp1335
g5
F777.0
stp1336
a(g197
(dp1337
g5
F600.0
stp1338
a(g248
(dp1339
g5
F481.0
stp1340
asg452
(lp1341
(g216
(dp1342
g5
F2826.0
stp1343
a(g580
(dp1344
g5
F1401.0
stp1345
a(g197
(dp1346
g5
F1118.0
stp1347
a(g221
(dp1348
g5
F452.0
stp1349
a(g311
(dp1350
g5
F258.0
stp1351
asg46
(lp1352
(g371
(dp1353
g5
F3356.0
stp1354
a(g24
(dp1355
g5
F1989.0
stp1356
a(g27
(dp1357
g5
F1566.0
stp1358
a(g33
(dp1359
g5
F1496.0
stp1360
a(g59
(dp1361
g5
F432.0
stp1362
asS'sailing'
p1363
(lp1364
(g21
(dp1365
g5
F198.0
stp1366
a(g3
(dp1367
g5
F107.0
stp1368
a(g81
(dp1369
g5
F89.0
stp1370
a(g91
(dp1371
g5
F70.0
stp1372
a(g78
(dp1373
g5
F66.0
stp1374
asg1064
(lp1375
(g449
(dp1376
g5
F649.0
stp1377
a(g105
(dp1378
g5
F553.0
stp1379
a(g41
(dp1380
g5
F466.0
stp1381
a(g24
(dp1382
g5
F417.0
stp1383
a(g299
(dp1384
g5
F384.0
stp1385
asg429
(lp1386
(g432
(dp1387
g5
F4986.0
stp1388
a(g374
(dp1389
g5
F2096.0
stp1390
a(g645
(dp1391
g5
F417.0
stp1392
a(g129
(dp1393
g5
F380.0
stp1394
a(g189
(dp1395
g5
F304.0
stp1396
asS'marriage'
p1397
(lp1398
(g367
(dp1399
g5
F533.0
stp1400
a(g999
(dp1401
g5
F374.0
stp1402
a(g1193
(dp1403
g5
F292.0
stp1404
a(g129
(dp1405
g5
F268.0
stp1406
a(g38
(dp1407
g5
F252.0
stp1408
asS'linux_opensource'
p1409
(lp1410
(g197
(dp1411
g5
F229.0
stp1412
a(g21
(dp1413
g5
F129.0
stp1414
a(g221
(dp1415
g5
F98.0
stp1416
a(g216
(dp1417
g5
F76.0
stp1418
a(g588
(dp1419
g5
F47.0
stp1420
asg91
(lp1421
(g38
(dp1422
g5
F486.0
stp1423
a(g3
(dp1424
g5
F161.0
stp1425
a(g197
(dp1426
g5
F158.0
stp1427
a(g21
(dp1428
g5
F149.0
stp1429
a(g270
(dp1430
g5
F139.0
stp1431
asg386
(lp1432
(g270
(dp1433
g5
F1057.0
stp1434
a(g311
(dp1435
g5
F377.0
stp1436
a(g38
(dp1437
g5
F220.0
stp1438
a(g264
(dp1439
g5
F207.0
stp1440
a(g197
(dp1441
g5
F171.0
stp1442
asg588
(lp1443
(g580
(dp1444
g5
F627.0
stp1445
a(g197
(dp1446
g5
F284.0
stp1447
a(g135
(dp1448
g5
F268.0
stp1449
a(g151
(dp1450
g5
F120.0
stp1451
a(g38
(dp1452
g5
F112.0
stp1453
asS'realestate'
p1454
(lp1455
(g189
(dp1456
g5
F1078.0
stp1457
a(g197
(dp1458
g5
F697.0
stp1459
a(g261
(dp1460
g5
F617.0
stp1461
a(g270
(dp1462
g5
F465.0
stp1463
a(g21
(dp1464
g5
F420.0
stp1465
asg595
(lp1466
(g91
(dp1467
g5
F334.0
stp1468
a(g1045
(dp1469
g5
F248.0
stp1470
a(g38
(dp1471
g5
F217.0
stp1472
a(g593
(dp1473
g5
F213.0
stp1474
a(g41
(dp1475
g5
F159.0
stp1476
asg1045
(lp1477
(g197
(dp1478
g5
F416.0
stp1479
a(g41
(dp1480
g5
F348.0
stp1481
a(g24
(dp1482
g5
F257.0
stp1483
a(g38
(dp1484
g5
F246.0
stp1485
a(g745
(dp1486
g5
F117.0
stp1487
asg151
(lp1488
(g38
(dp1489
g5
F5248.0
stp1490
a(g248
(dp1491
g5
F1305.0
stp1492
a(g135
(dp1493
g5
F913.0
stp1494
a(g91
(dp1495
g5
F539.0
stp1496
a(g490
(dp1497
g5
F462.0
stp1498
asS'nursing'
p1499
(lp1500
(g186
(dp1501
g5
F1745.0
stp1502
a(g16
(dp1503
g5
F529.0
stp1504
a(g91
(dp1505
g5
F234.0
stp1506
a(g1193
(dp1507
g5
F157.0
stp1508
a(g192
(dp1509
g5
F151.0
stp1510
asg294
(lp1511
(g24
(dp1512
g5
F735.0
stp1513
a(g299
(dp1514
g5
F556.0
stp1515
a(g41
(dp1516
g5
F515.0
stp1517
a(g21
(dp1518
g5
F487.0
stp1519
a(g27
(dp1520
g5
F334.0
stp1521
asS'engineering'
p1522
(lp1523
(g455
(dp1524
g5
F409.0
stp1525
a(g197
(dp1526
g5
F237.0
stp1527
a(g1045
(dp1528
g5
F184.0
stp1529
a(g318
(dp1530
g5
F148.0
stp1531
a(g91
(dp1532
g5
F139.0
stp1533
asS'accounting'
p1534
(lp1535
(g270
(dp1536
g5
F699.0
stp1537
a(g931
(dp1538
g5
F451.0
stp1539
a(g221
(dp1540
g5
F411.0
stp1541
a(g21
(dp1542
g5
F221.0
stp1543
a(g189
(dp1544
g5
F205.0
stp1545
asS'magician'
p1546
(lp1547
(g197
(dp1548
g5
F565.0
stp1549
a(g261
(dp1550
g5
F354.0
stp1551
a(g41
(dp1552
g5
F331.0
stp1553
a(g221
(dp1554
g5
F243.0
stp1555
a(g24
(dp1556
g5
F206.0
stp1557
asg778
(lp1558
(g78
(dp1559
g5
F2219.0
stp1560
a(g86
(dp1561
g5
F1735.0
stp1562
a(g81
(dp1563
g5
F611.0
stp1564
a(g73
(dp1565
g5
F313.0
stp1566
a(g172
(dp1567
g5
F237.0
stp1568
asg1141
(lp1569
(g135
(dp1570
g5
F1862.0
stp1571
a(g132
(dp1572
g5
F1480.0
stp1573
a(g38
(dp1574
g5
F1433.0
stp1575
a(g91
(dp1576
g5
F1263.0
stp1577
a(g151
(dp1578
g5
F583.0
stp1579
asg105
(lp1580
(g99
(dp1581
g5
F1336.0
stp1582
a(g233
(dp1583
g5
F1327.0
stp1584
a(g27
(dp1585
g5
F705.0
stp1586
a(g38
(dp1587
g5
F653.0
stp1588
a(g102
(dp1589
g5
F516.0
stp1590
asg1327
(lp1591
(g129
(dp1592
g5
F398.0
stp1593
a(g270
(dp1594
g5
F335.0
stp1595
a(g38
(dp1596
g5
F266.0
stp1597
a(g189
(dp1598
g5
F164.0
stp1599
a(g1193
(dp1600
g5
F158.0
stp1601
asS'peace'
p1602
(lp1603
(g38
(dp1604
g5
F619.0
stp1605
a(g91
(dp1606
g5
F523.0
stp1607
a(g135
(dp1608
g5
F396.0
stp1609
a(g170
(dp1610
g5
F379.0
stp1611
a(g175
(dp1612
g5
F314.0
stp1613
asS'storage'
p1614
(lp1615
(g197
(dp1616
g5
F648.0
stp1617
a(g21
(dp1618
g5
F169.0
stp1619
a(g305
(dp1620
g5
F165.0
stp1621
a(g94
(dp1622
g5
F163.0
stp1623
a(g1122
(dp1624
g5
F160.0
stp1625
asg371
(lp1626
(g46
(dp1627
g5
F5933.0
stp1628
a(g27
(dp1629
g5
F3194.0
stp1630
a(g24
(dp1631
g5
F1945.0
stp1632
a(g59
(dp1633
g5
F1584.0
stp1634
a(g33
(dp1635
g5
F1249.0
stp1636
asg233
(lp1637
(g105
(dp1638
g5
F1679.0
stp1639
a(g99
(dp1640
g5
F1434.0
stp1641
a(g102
(dp1642
g5
F225.0
stp1643
a(g38
(dp1644
g5
F179.0
stp1645
a(g24
(dp1646
g5
F144.0
stp1647
asg256
(lp1648
(g216
(dp1649
g5
F946.0
stp1650
a(g727
(dp1651
g5
F607.0
stp1652
a(g213
(dp1653
g5
F493.0
stp1654
a(g1311
(dp1655
g5
F366.0
stp1656
a(g197
(dp1657
g5
F323.0
stp1658
asg114
(lp1659
(g112
(dp1660
g5
F1022.0
stp1661
a(g117
(dp1662
g5
F482.0
stp1663
a(g38
(dp1664
g5
F257.0
stp1665
a(g135
(dp1666
g5
F170.0
stp1667
a(g91
(dp1668
g5
F160.0
stp1669
asS'animation'
p1670
(lp1671
(g299
(dp1672
g5
F1037.0
stp1673
a(g41
(dp1674
g5
F589.0
stp1675
a(g294
(dp1676
g5
F484.0
stp1677
a(g1064
(dp1678
g5
F368.0
stp1679
a(g21
(dp1680
g5
F207.0
stp1681
asg270
(lp1682
(g38
(dp1683
g5
F744.0
stp1684
a(g197
(dp1685
g5
F454.0
stp1686
a(g386
(dp1687
g5
F317.0
stp1688
a(g493
(dp1689
g5
F286.0
stp1690
a(g172
(dp1691
g5
F269.0
stp1692
asg784
(lp1693
(g189
(dp1694
g5
F5390.0
stp1695
a(g197
(dp1696
g5
F1447.0
stp1697
a(g221
(dp1698
g5
F770.0
stp1699
a(g38
(dp1700
g5
F734.0
stp1701
a(g261
(dp1702
g5
F725.0
stp1703
asg117
(lp1704
(g114
(dp1705
g5
F600.0
stp1706
a(g1193
(dp1707
g5
F369.0
stp1708
a(g21
(dp1709
g5
F276.0
stp1710
a(g38
(dp1711
g5
F275.0
stp1712
a(g105
(dp1713
g5
F261.0
stp1714
asg302
(lp1715
(g299
(dp1716
g5
F1666.0
stp1717
a(g21
(dp1718
g5
F420.0
stp1719
a(g294
(dp1720
g5
F253.0
stp1721
a(g236
(dp1722
g5
F229.0
stp1723
a(g105
(dp1724
g5
F197.0
stp1725
asS'anime'
p1726
(lp1727
(g21
(dp1728
g5
F810.0
stp1729
a(g1064
(dp1730
g5
F254.0
stp1731
a(g449
(dp1732
g5
F168.0
stp1733
a(g197
(dp1734
g5
F115.0
stp1735
a(g38
(dp1736
g5
F78.0
stp1737
asg449
(lp1738
(g24
(dp1739
g5
F453.0
stp1740
a(g1064
(dp1741
g5
F440.0
stp1742
a(g197
(dp1743
g5
F429.0
stp1744
a(g41
(dp1745
g5
F261.0
stp1746
a(g21
(dp1747
g5
F207.0
stp1748
asg1098
(lp1749
(g1096
(dp1750
g5
F417.0
stp1751
a(g7
(dp1752
g5
F245.0
stp1753
a(g41
(dp1754
g5
F187.0
stp1755
a(g24
(dp1756
g5
F175.0
stp1757
a(g3
(dp1758
g5
F127.0
stp1759
asS'philosophy'
p1760
(lp1761
(g151
(dp1762
g5
F278.0
stp1763
a(g91
(dp1764
g5
F189.0
stp1765
a(g346
(dp1766
g5
F122.0
stp1767
a(g21
(dp1768
g5
F122.0
stp1769
a(g38
(dp1770
g5
F121.0
stp1771
asg27
(lp1772
(g59
(dp1773
g5
F529.0
stp1774
a(g41
(dp1775
g5
F503.0
stp1776
a(g261
(dp1777
g5
F462.0
stp1778
a(g52
(dp1779
g5
F376.0
stp1780
a(g24
(dp1781
g5
F357.0
stp1782
asg299
(lp1783
(g41
(dp1784
g5
F1997.0
stp1785
a(g59
(dp1786
g5
F1610.0
stp1787
a(g24
(dp1788
g5
F1216.0
stp1789
a(g302
(dp1790
g5
F1077.0
stp1791
a(g236
(dp1792
g5
F1048.0
stp1793
asg129
(lp1794
(g38
(dp1795
g5
F929.0
stp1796
a(g189
(dp1797
g5
F850.0
stp1798
a(g1073
(dp1799
g5
F600.0
stp1800
a(g999
(dp1801
g5
F512.0
stp1802
a(g281
(dp1803
g5
F492.0
stp1804
asg73
(lp1805
(g521
(dp1806
g5
F868.0
stp1807
a(g1193
(dp1808
g5
F236.0
stp1809
a(g86
(dp1810
g5
F160.0
stp1811
a(g91
(dp1812
g5
F154.0
stp1813
a(g192
(dp1814
g5
F123.0
stp1815
asg511
(lp1816
(g91
(dp1817
g5
F423.0
stp1818
a(g197
(dp1819
g5
F339.0
stp1820
a(g49
(dp1821
g5
F328.0
stp1822
a(g124
(dp1823
g5
F310.0
stp1824
a(g38
(dp1825
g5
F267.0
stp1826
asg747
(lp1827
(g745
(dp1828
g5
F662.0
stp1829
a(g999
(dp1830
g5
F594.0
stp1831
a(g38
(dp1832
g5
F220.0
stp1833
a(g91
(dp1834
g5
F205.0
stp1835
a(g1760
(dp1836
g5
F192.0
stp1837
asg1311
(lp1838
(g216
(dp1839
g5
F918.0
stp1840
a(g727
(dp1841
g5
F477.0
stp1842
a(g197
(dp1843
g5
F415.0
stp1844
a(g580
(dp1845
g5
F342.0
stp1846
a(g256
(dp1847
g5
F320.0
stp1848
asg236
(lp1849
(g299
(dp1850
g5
F1474.0
stp1851
a(g41
(dp1852
g5
F713.0
stp1853
a(g105
(dp1854
g5
F689.0
stp1855
a(g24
(dp1856
g5
F576.0
stp1857
a(g102
(dp1858
g5
F410.0
stp1859
asg86
(lp1860
(g778
(dp1861
g5
F1233.0
stp1862
a(g81
(dp1863
g5
F339.0
stp1864
a(g73
(dp1865
g5
F186.0
stp1866
a(g78
(dp1867
g5
F177.0
stp1868
a(g117
(dp1869
g5
F170.0
stp1870
asg629
(lp1871
(g83
(dp1872
g5
F807.0
stp1873
a(g27
(dp1874
g5
F113.0
stp1875
a(g3
(dp1876
g5
F97.0
stp1877
a(g52
(dp1878
g5
F90.0
stp1879
a(g81
(dp1880
g5
F90.0
stp1881
asg24
(lp1882
(g41
(dp1883
g5
F1422.0
stp1884
a(g299
(dp1885
g5
F744.0
stp1886
a(g27
(dp1887
g5
F729.0
stp1888
a(g38
(dp1889
g5
F500.0
stp1890
a(g197
(dp1891
g5
F426.0
stp1892
asg1122
(lp1893
(g1120
(dp1894
g5
F581.0
stp1895
a(g197
(dp1896
g5
F457.0
stp1897
a(g727
(dp1898
g5
F398.0
stp1899
a(g216
(dp1900
g5
F222.0
stp1901
a(g21
(dp1902
g5
F185.0
stp1903
asg261
(lp1904
(g197
(dp1905
g5
F1199.0
stp1906
a(g59
(dp1907
g5
F997.0
stp1908
a(g27
(dp1909
g5
F801.0
stp1910
a(g21
(dp1911
g5
F267.0
stp1912
a(g24
(dp1913
g5
F254.0
stp1914
asg21
(lp1915
(g27
(dp1916
g5
F571.0
stp1917
a(g24
(dp1918
g5
F461.0
stp1919
a(g41
(dp1920
g5
F346.0
stp1921
a(g197
(dp1922
g5
F278.0
stp1923
a(g33
(dp1924
g5
F221.0
stp1925
asg549
(lp1926
(g261
(dp1927
g5
F2592.0
stp1928
a(g270
(dp1929
g5
F2009.0
stp1930
a(g545
(dp1931
g5
F1646.0
stp1932
a(g189
(dp1933
g5
F1014.0
stp1934
a(g38
(dp1935
g5
F1012.0
stp1936
asg197
(lp1937
(g305
(dp1938
g5
F1187.0
stp1939
a(g311
(dp1940
g5
F1127.0
stp1941
a(g192
(dp1942
g5
F732.0
stp1943
a(g221
(dp1944
g5
F718.0
stp1945
a(g452
(dp1946
g5
F623.0
stp1947
asS'lesbian'
p1948
(lp1949
(g38
(dp1950
g5
F1034.0
stp1951
a(g27
(dp1952
g5
F590.0
stp1953
a(g24
(dp1954
g5
F437.0
stp1955
a(g151
(dp1956
g5
F404.0
stp1957
a(g105
(dp1958
g5
F297.0
stp1959
asS'chemistry'
p1960
(lp1961
(g745
(dp1962
g5
F409.0
stp1963
a(g1045
(dp1964
g5
F139.0
stp1965
a(g184
(dp1966
g5
F115.0
stp1967
a(g38
(dp1968
g5
F86.0
stp1969
a(g172
(dp1970
g5
F76.0
stp1971
asg148
(lp1972
(g673
(dp1973
g5
F674.0
stp1974
a(g595
(dp1975
g5
F524.0
stp1976
a(g21
(dp1977
g5
F286.0
stp1978
a(g91
(dp1979
g5
F230.0
stp1980
a(g38
(dp1981
g5
F121.0
stp1982
asg1188
(lp1983
(g545
(dp1984
g5
F801.0
stp1985
a(g432
(dp1986
g5
F692.0
stp1987
a(g1030
(dp1988
g5
F520.0
stp1989
a(g197
(dp1990
g5
F343.0
stp1991
a(g429
(dp1992
g5
F245.0
stp1993
as.